target datalayout = "e-m:e-p270:32:32-p271:32:32-p272:64:64-i64:64-i128:128-f80:128-n8:16:32:64-S128"
target triple = "x86_64-pc-linux-gnu"

%struct.conf_method_st = type { ptr, ptr, ptr, ptr, ptr, ptr, ptr, ptr, ptr, ptr }
%struct.conf_st = type { ptr, ptr, ptr, i32, i32, ptr, ptr }

@.str.1 = private unnamed_addr constant [34 x i8] c"../openssl/crypto/conf/conf_lib.c\00", align 1
@__func__.NCONF_new_ex = private unnamed_addr constant [13 x i8] c"NCONF_new_ex\00", align 1

; Function Attrs: nounwind uwtable
define ptr @NCONF_new_ex(ptr noundef %0, ptr noundef %1) #0 {
  %3 = alloca ptr, align 8
  %4 = alloca ptr, align 8
  %5 = alloca ptr, align 8
  %6 = alloca ptr, align 8
  %7 = alloca i32, align 4
  store ptr %0, ptr %4, align 8, !tbaa !39
  store ptr %1, ptr %5, align 8, !tbaa !10
  call void @llvm.lifetime.start.p0(i64 8, ptr %6) #8
  %8 = load ptr, ptr %5, align 8, !tbaa !10
  %9 = icmp eq ptr %8, null
  br i1 %9, label %10, label %12

10:                                               ; preds = %2
  %11 = call ptr @NCONF_default()
  store ptr %11, ptr %5, align 8, !tbaa !10
  br label %12

12:                                               ; preds = %10, %2
  %13 = load ptr, ptr %5, align 8, !tbaa !10
  %14 = getelementptr inbounds nuw %struct.conf_method_st, ptr %13, i32 0, i32 1
  %15 = load ptr, ptr %14, align 8, !tbaa !40
  %16 = load ptr, ptr %5, align 8, !tbaa !10
  %17 = call ptr %15(ptr noundef %16)
  store ptr %17, ptr %6, align 8, !tbaa !3
  %18 = load ptr, ptr %6, align 8, !tbaa !3
  %19 = icmp eq ptr %18, null
  br i1 %19, label %20, label %21

20:                                               ; preds = %12
  call void @ERR_new()
  call void @ERR_set_debug(ptr noundef @.str.1, i32 noundef 191, ptr noundef @__func__.NCONF_new_ex)
  call void (i32, i32, ptr, ...) @ERR_set_error(i32 noundef 14, i32 noundef 524302, ptr noundef null)
  store ptr null, ptr %3, align 8
  store i32 1, ptr %7, align 4
  br label %26

21:                                               ; preds = %12
  %22 = load ptr, ptr %4, align 8, !tbaa !39
  %23 = load ptr, ptr %6, align 8, !tbaa !3
  %24 = getelementptr inbounds nuw %struct.conf_st, ptr %23, i32 0, i32 6
  store ptr %22, ptr %24, align 8, !tbaa !41
  %25 = load ptr, ptr %6, align 8, !tbaa !3
  store ptr %25, ptr %3, align 8
  store i32 1, ptr %7, align 4
  br label %26

26:                                               ; preds = %21, %20
  call void @llvm.lifetime.end.p0(i64 8, ptr %6) #8
  %27 = load ptr, ptr %3, align 8
  ret ptr %27
}