; Function Attrs: nounwind uwtable
define ptr @NCONF_new_ex(ptr noundef %0, ptr noundef %1) local_unnamed_addr #0 {
  %3 = icmp eq ptr %1, null
  br i1 %3, label %4, label %6

4:                                                ; preds = %2
  %5 = tail call ptr @NCONF_default() #15
  br label %6

6:                                                ; preds = %4, %2
  %.08 = phi ptr [ %5, %4 ], [ %1, %2 ]
  %7 = getelementptr inbounds nuw i8, ptr %.08, i64 8
  %8 = load ptr, ptr %7, align 8, !tbaa !27
  %9 = tail call ptr %8(ptr noundef %.08) #15
  %10 = icmp eq ptr %9, null
  br i1 %10, label %11, label %12

11:                                               ; preds = %6
  tail call void @ERR_new() #15
  tail call void @ERR_set_debug(ptr noundef nonnull @.str.1, i32 noundef 191, ptr noundef nonnull @__func__.NCONF_new_ex) #15
  tail call void (i32, i32, ptr, ...) @ERR_set_error(i32 noundef 14, i32 noundef 524302, ptr noundef null) #15
  br label %14

12:                                               ; preds = %6
  %13 = getelementptr inbounds nuw i8, ptr %9, i64 40
  store ptr %0, ptr %13, align 8, !tbaa !28
  br label %14

14:                                               ; preds = %12, %11
  ret ptr %9
}